(lp0
(lp1
S'Aberdeen'
p2
aS'Dundee'
p3
aS'Edinburgh'
p4
aS'Glasgow'
p5
aS'Inverness'
p6
aS'Perth'
p7
aS'Stirling'
p8
aa(lp9
(lp10
I0
aI55
aI92
aI122
aI83
aI72
aI99
aa(lp11
I55
aI0
aI39
aI68
aI82
aI19
aI46
aa(lp12
I92
aI39
aI0
aI41
aI112
aI32
aI31
aa(lp13
I122
aI68
aI41
aI0
aI113
aI50
aI23
aa(lp14
I83
aI82
aI112
aI113
aI0
aI80
aI94
aa(lp15
I72
aI19
aI32
aI50
aI80
aI0
aI28
aa(lp16
I99
aI46
aI31
aI23
aI94
aI28
aI0
aaa.